; ModuleID = '57/234.c'
source_filename = "57/234.c"
target datalayout = "e-m:e-p270:32:32-p271:32:32-p272:64:64-i64:64-f80:128-n8:16:32:64-S128"
target triple = "x86_64-pc-linux-gnu"

@.str = private unnamed_addr constant [3 x i8] c"%d\00", align 1
@.str.1 = private unnamed_addr constant [3 x i8] c"%s\00", align 1
@.str.2 = private unnamed_addr constant [4 x i8] c"%s\0A\00", align 1

; Function Attrs: noinline nounwind uwtable
define dso_local void @main() #0 {
  %1 = alloca i32, align 4
  %2 = alloca i32, align 4
  %3 = alloca i32, align 4
  %4 = alloca [100 x i8], align 16
  %5 = alloca [100 x [100 x i8]], align 16
  %6 = bitcast [100 x [100 x i8]]* %5 to i8*
  call void @llvm.memset.p0i8.i64(i8* align 16 %6, i8 0, i64 10000, i1 false)
  %7 = bitcast i8* %6 to <{ <{ i8, [99 x i8] }>, [99 x <{ i8, [99 x i8] }>] }>*
  %8 = getelementptr inbounds <{ <{ i8, [99 x i8] }>, [99 x <{ i8, [99 x i8] }>] }>, <{ <{ i8, [99 x i8] }>, [99 x <{ i8, [99 x i8] }>] }>* %7, i32 0, i32 0
  %9 = getelementptr inbounds <{ i8, [99 x i8] }>, <{ i8, [99 x i8] }>* %8, i32 0, i32 0
  store i8 97, i8* %9, align 16
  %10 = call i32 (i8*, ...) @__isoc99_scanf(i8* getelementptr inbounds ([3 x i8], [3 x i8]* @.str, i64 0, i64 0), i32* %1)
  store i32 0, i32* %2, align 4
  br label %11

11:                                               ; preds = %107, %0
  %12 = load i32, i32* %2, align 4
  %13 = load i32, i32* %1, align 4
  %14 = icmp slt i32 %12, %13
  br i1 %14, label %15, label %110

15:                                               ; preds = %11
  %16 = getelementptr inbounds [100 x i8], [100 x i8]* %4, i64 0, i64 0
  %17 = call i32 (i8*, ...) @__isoc99_scanf(i8* getelementptr inbounds ([3 x i8], [3 x i8]* @.str.1, i64 0, i64 0), i8* %16)
  %18 = getelementptr inbounds [100 x i8], [100 x i8]* %4, i64 0, i64 0
  %19 = call i64 @strlen(i8* %18) #5
  %20 = trunc i64 %19 to i32
  store i32 %20, i32* %3, align 4
  %21 = load i32, i32* %3, align 4
  %22 = sub nsw i32 %21, 3
  %23 = sext i32 %22 to i64
  %24 = getelementptr inbounds [100 x i8], [100 x i8]* %4, i64 0, i64 %23
  %25 = load i8, i8* %24, align 1
  %26 = sext i8 %25 to i32
  %27 = icmp eq i32 %26, 105
  br i1 %27, label %28, label %54

28:                                               ; preds = %15
  %29 = load i32, i32* %3, align 4
  %30 = sub nsw i32 %29, 2
  %31 = sext i32 %30 to i64
  %32 = getelementptr inbounds [100 x i8], [100 x i8]* %4, i64 0, i64 %31
  %33 = load i8, i8* %32, align 1
  %34 = sext i8 %33 to i32
  %35 = icmp eq i32 %34, 110
  br i1 %35, label %36, label %54

36:                                               ; preds = %28
  %37 = load i32, i32* %3, align 4
  %38 = sub nsw i32 %37, 1
  %39 = sext i32 %38 to i64
  %40 = getelementptr inbounds [100 x i8], [100 x i8]* %4, i64 0, i64 %39
  %41 = load i8, i8* %40, align 1
  %42 = sext i8 %41 to i32
  %43 = icmp eq i32 %42, 103
  br i1 %43, label %44, label %54

44:                                               ; preds = %36
  %45 = load i32, i32* %2, align 4
  %46 = sext i32 %45 to i64
  %47 = getelementptr inbounds [100 x [100 x i8]], [100 x [100 x i8]]* %5, i64 0, i64 %46
  %48 = getelementptr inbounds [100 x i8], [100 x i8]* %47, i64 0, i64 0
  %49 = getelementptr inbounds [100 x i8], [100 x i8]* %4, i64 0, i64 0
  %50 = load i32, i32* %3, align 4
  %51 = sub nsw i32 %50, 3
  %52 = sext i32 %51 to i64
  %53 = call i8* @strncpy(i8* %48, i8* %49, i64 %52) #6
  br label %107

54:                                               ; preds = %36, %28, %15
  %55 = load i32, i32* %3, align 4
  %56 = sub nsw i32 %55, 2
  %57 = sext i32 %56 to i64
  %58 = getelementptr inbounds [100 x i8], [100 x i8]* %4, i64 0, i64 %57
  %59 = load i8, i8* %58, align 1
  %60 = sext i8 %59 to i32
  %61 = icmp eq i32 %60, 101
  br i1 %61, label %62, label %80

62:                                               ; preds = %54
  %63 = load i32, i32* %3, align 4
  %64 = sub nsw i32 %63, 1
  %65 = sext i32 %64 to i64
  %66 = getelementptr inbounds [100 x i8], [100 x i8]* %4, i64 0, i64 %65
  %67 = load i8, i8* %66, align 1
  %68 = sext i8 %67 to i32
  %69 = icmp eq i32 %68, 114
  br i1 %69, label %70, label %80

70:                                               ; preds = %62
  %71 = load i32, i32* %2, align 4
  %72 = sext i32 %71 to i64
  %73 = getelementptr inbounds [100 x [100 x i8]], [100 x [100 x i8]]* %5, i64 0, i64 %72
  %74 = getelementptr inbounds [100 x i8], [100 x i8]* %73, i64 0, i64 0
  %75 = getelementptr inbounds [100 x i8], [100 x i8]* %4, i64 0, i64 0
  %76 = load i32, i32* %3, align 4
  %77 = sub nsw i32 %76, 2
  %78 = sext i32 %77 to i64
  %79 = call i8* @strncpy(i8* %74, i8* %75, i64 %78) #6
  br label %107

80:                                               ; preds = %62, %54
  %81 = load i32, i32* %3, align 4
  %82 = sub nsw i32 %81, 2
  %83 = sext i32 %82 to i64
  %84 = getelementptr inbounds [100 x i8], [100 x i8]* %4, i64 0, i64 %83
  %85 = load i8, i8* %84, align 1
  %86 = sext i8 %85 to i32
  %87 = icmp eq i32 %86, 108
  br i1 %87, label %88, label %106

88:                                               ; preds = %80
  %89 = load i32, i32* %3, align 4
  %90 = sub nsw i32 %89, 1
  %91 = sext i32 %90 to i64
  %92 = getelementptr inbounds [100 x i8], [100 x i8]* %4, i64 0, i64 %91
  %93 = load i8, i8* %92, align 1
  %94 = sext i8 %93 to i32
  %95 = icmp eq i32 %94, 121
  br i1 %95, label %96, label %106

96:                                               ; preds = %88
  %97 = load i32, i32* %2, align 4
  %98 = sext i32 %97 to i64
  %99 = getelementptr inbounds [100 x [100 x i8]], [100 x [100 x i8]]* %5, i64 0, i64 %98
  %100 = getelementptr inbounds [100 x i8], [100 x i8]* %99, i64 0, i64 0
  %101 = getelementptr inbounds [100 x i8], [100 x i8]* %4, i64 0, i64 0
  %102 = load i32, i32* %3, align 4
  %103 = sub nsw i32 %102, 2
  %104 = sext i32 %103 to i64
  %105 = call i8* @strncpy(i8* %100, i8* %101, i64 %104) #6
  br label %106

106:                                              ; preds = %96, %88, %80
  br label %107

107:                                              ; preds = %106, %70, %44
  %108 = load i32, i32* %2, align 4
  %109 = add nsw i32 %108, 1
  store i32 %109, i32* %2, align 4
  br label %11

110:                                              ; preds = %11
  store i32 0, i32* %2, align 4
  br label %111

111:                                              ; preds = %121, %110
  %112 = load i32, i32* %2, align 4
  %113 = load i32, i32* %1, align 4
  %114 = icmp slt i32 %112, %113
  br i1 %114, label %115, label %124

115:                                              ; preds = %111
  %116 = load i32, i32* %2, align 4
  %117 = sext i32 %116 to i64
  %118 = getelementptr inbounds [100 x [100 x i8]], [100 x [100 x i8]]* %5, i64 0, i64 %117
  %119 = getelementptr inbounds [100 x i8], [100 x i8]* %118, i64 0, i64 0
  %120 = call i32 (i8*, ...) @printf(i8* getelementptr inbounds ([4 x i8], [4 x i8]* @.str.2, i64 0, i64 0), i8* %119)
  br label %121

121:                                              ; preds = %115
  %122 = load i32, i32* %2, align 4
  %123 = add nsw i32 %122, 1
  store i32 %123, i32* %2, align 4
  br label %111

124:                                              ; preds = %111
  ret void
}

; Function Attrs: argmemonly nounwind willreturn
declare void @llvm.memset.p0i8.i64(i8* nocapture writeonly, i8, i64, i1 immarg) #1

declare dso_local i32 @__isoc99_scanf(i8*, ...) #2

; Function Attrs: nounwind readonly
declare dso_local i64 @strlen(i8*) #3

; Function Attrs: nounwind
declare dso_local i8* @strncpy(i8*, i8*, i64) #4

declare dso_local i32 @printf(i8*, ...) #2


!llvm.module.flags = !{!0}
!llvm.ident = !{!1}

!0 = !{i32 1, !"wchar_size", i32 4}
!1 = !{!"clang version 10.0.0-4ubuntu1 "}
